; Function Attrs: mustprogress uwtable
define noundef i32 @_ZN3zmq5rep_t5xrecvEPNS_5msg_tE(ptr noundef nonnull align 8 dereferenceable(2184) %this, ptr noundef %msg_) unnamed_addr #0 align 2 {
entry:
  %_sending_reply = getelementptr inbounds i8, ptr %this, i64 2180
  %0 = load i8, ptr %_sending_reply, align 4
  %1 = and i8 %0, 1
  %tobool.not = icmp eq i8 %1, 0
  br i1 %tobool.not, label %if.end, label %if.then

if.then:                                          ; preds = %entry
  %call = tail call ptr @__errno_location() #10
  store i32 156384763, ptr %call, align 4
  br label %return

if.end:                                           ; preds = %entry
  %_request_begins = getelementptr inbounds i8, ptr %this, i64 2181
  %2 = load i8, ptr %_request_begins, align 1
  %3 = and i8 %2, 1
  %tobool2.not = icmp eq i8 %3, 0
  br i1 %tobool2.not, label %if.end39, label %while.body.preheader

while.body.preheader:                             ; preds = %if.end
  %call413 = tail call noundef i32 @_ZN3zmq8router_t5xrecvEPNS_5msg_tE(ptr noundef nonnull align 8 dereferenceable(2180) %this, ptr noundef %msg_)
  %cmp.not14 = icmp eq i32 %call413, 0
  br i1 %cmp.not14, label %if.end6, label %return

if.end6:                                          ; preds = %while.body.preheader, %if.end37
  %call7 = tail call noundef zeroext i8 @_ZNK3zmq5msg_t5flagsEv(ptr noundef nonnull align 8 dereferenceable(64) %msg_)
  %4 = and i8 %call7, 1
  %tobool8.not = icmp eq i8 %4, 0
  br i1 %tobool8.not, label %if.else, label %if.then9

if.then9:                                         ; preds = %if.end6
  %call10 = tail call noundef i64 @_ZNK3zmq5msg_t4sizeEv(ptr noundef nonnull align 8 dereferenceable(64) %msg_)
  %cmp11 = icmp eq i64 %call10, 0
  %call12 = tail call noundef i32 @_ZN3zmq8router_t5xsendEPNS_5msg_tE(ptr noundef nonnull align 8 dereferenceable(2180) %this, ptr noundef nonnull %msg_)
  %cmp13.not = icmp eq i32 %call12, 0
  br i1 %cmp13.not, label %do.end, label %if.then15

if.then15:                                        ; preds = %if.then9
  %call16 = tail call ptr @__errno_location() #10
  %5 = load i32, ptr %call16, align 4
  %call17 = tail call ptr @strerror(i32 noundef %5) #8
  %6 = load ptr, ptr @stderr, align 8
  %call18 = tail call i32 (ptr, ptr, ...) @fprintf(ptr noundef %6, ptr noundef nonnull @.str, ptr noundef %call17, ptr noundef nonnull @.str.1, i32 noundef 64) #11
  %7 = load ptr, ptr @stderr, align 8
  %call19 = tail call i32 @fflush(ptr noundef %7)
  tail call void @_ZN3zmq9zmq_abortEPKc(ptr noundef %call17)
  br label %do.end

do.end:                                           ; preds = %if.then9, %if.then15
  br i1 %cmp11, label %while.end, label %if.end37

if.else:                                          ; preds = %if.end6
  %call24 = tail call noundef i32 @_ZN3zmq8router_t8rollbackEv(ptr noundef nonnull align 8 dereferenceable(2180) %this)
  %cmp26.not = icmp eq i32 %call24, 0
  br i1 %cmp26.not, label %if.end37, label %if.then29

if.then29:                                        ; preds = %if.else
  %call31 = tail call ptr @__errno_location() #10
  %8 = load i32, ptr %call31, align 4
  %call32 = tail call ptr @strerror(i32 noundef %8) #8
  %9 = load ptr, ptr @stderr, align 8
  %call33 = tail call i32 (ptr, ptr, ...) @fprintf(ptr noundef %9, ptr noundef nonnull @.str, ptr noundef %call32, ptr noundef nonnull @.str.1, i32 noundef 72) #11
  %10 = load ptr, ptr @stderr, align 8
  %call34 = tail call i32 @fflush(ptr noundef %10)
  tail call void @_ZN3zmq9zmq_abortEPKc(ptr noundef %call32)
  br label %if.end37

if.end37:                                         ; preds = %if.then29, %if.else, %do.end
  %call4 = tail call noundef i32 @_ZN3zmq8router_t5xrecvEPNS_5msg_tE(ptr noundef nonnull align 8 dereferenceable(2180) %this, ptr noundef nonnull %msg_)
  %cmp.not = icmp eq i32 %call4, 0
  br i1 %cmp.not, label %if.end6, label %return, !llvm.loop !4

while.end:                                        ; preds = %do.end
  store i8 0, ptr %_request_begins, align 1
  br label %if.end39

if.end39:                                         ; preds = %while.end, %if.end
  %call41 = tail call noundef i32 @_ZN3zmq8router_t5xrecvEPNS_5msg_tE(ptr noundef nonnull align 8 dereferenceable(2180) %this, ptr noundef %msg_)
  %cmp42.not = icmp eq i32 %call41, 0
  br i1 %cmp42.not, label %if.end44, label %return

if.end44:                                         ; preds = %if.end39
  %call45 = tail call noundef zeroext i8 @_ZNK3zmq5msg_t5flagsEv(ptr noundef nonnull align 8 dereferenceable(64) %msg_)
  %11 = and i8 %call45, 1
  %tobool48.not = icmp eq i8 %11, 0
  br i1 %tobool48.not, label %if.then49, label %return

if.then49:                                        ; preds = %if.end44
  store i8 1, ptr %_sending_reply, align 4
  store i8 1, ptr %_request_begins, align 1
  br label %return

return:                                           ; preds = %if.end37, %while.body.preheader, %if.end44, %if.then49, %if.end39, %if.then
  %retval.0 = phi i32 [ -1, %if.then ], [ %call41, %if.end39 ], [ 0, %if.then49 ], [ 0, %if.end44 ], [ %call413, %while.body.preheader ], [ %call4, %if.end37 ]
  ret i32 %retval.0
}